target datalayout = "e-m:e-p270:32:32-p271:32:32-p272:64:64-i64:64-i128:128-f80:128-n8:16:32:64-S128"
target triple = "x86_64-pc-linux-gnu"

%"class.icu_77::UnicodeString" = type { %"class.icu_77::Replaceable", %"union.icu_77::UnicodeString::StackBufferOrFields" }
%"class.icu_77::Replaceable" = type { %"class.icu_77::UObject" }
%"class.icu_77::UObject" = type { ptr }
%"union.icu_77::UnicodeString::StackBufferOrFields" = type { %struct.anon.0, [32 x i8] }
%struct.anon.0 = type { i16, i32, i32, ptr }
%"class.std::type_info" = type { ptr, ptr }

@_ZTIN6icu_7714HebrewCalendarE = external constant ptr

; Function Attrs: mustprogress nounwind uwtable
define linkonce_odr noundef ptr @_ZNKSt9type_info4nameEv(ptr noundef nonnull align 8 dereferenceable(16) %0) #0 comdat align 2 {
  %2 = alloca ptr, align 8
  store ptr %0, ptr %2, align 8, !tbaa !144
  %3 = load ptr, ptr %2, align 8
  %4 = getelementptr inbounds nuw %"class.std::type_info", ptr %3, i32 0, i32 1
  %5 = load ptr, ptr %4, align 8, !tbaa !146
  %6 = getelementptr inbounds i8, ptr %5, i64 0
  %7 = load i8, ptr %6, align 1, !tbaa !74
  %8 = sext i8 %7 to i32
  %9 = icmp eq i32 %8, 42
  br i1 %9, label %10, label %14

10:                                               ; preds = %1
  %11 = getelementptr inbounds nuw %"class.std::type_info", ptr %3, i32 0, i32 1
  %12 = load ptr, ptr %11, align 8, !tbaa !146
  %13 = getelementptr inbounds i8, ptr %12, i64 1
  br label %17

14:                                               ; preds = %1
  %15 = getelementptr inbounds nuw %"class.std::type_info", ptr %3, i32 0, i32 1
  %16 = load ptr, ptr %15, align 8, !tbaa !146
  br label %17

17:                                               ; preds = %14, %10
  %18 = phi ptr [ %13, %10 ], [ %16, %14 ]
  ret ptr %18
}

; Function Attrs: inlinehint mustprogress nounwind uwtable
define linkonce_odr noundef zeroext i1 @_ZNKSt9type_infoeqERKS_(ptr noundef nonnull align 8 dereferenceable(16) %0, ptr noundef nonnull align 8 dereferenceable(16) %1) #2 comdat align 2 {
  %3 = alloca i1, align 1
  %4 = alloca ptr, align 8
  %5 = alloca ptr, align 8
  store ptr %0, ptr %4, align 8, !tbaa !144
  store ptr %1, ptr %5, align 8, !tbaa !144
  %6 = load ptr, ptr %4, align 8
  %7 = getelementptr inbounds nuw %"class.std::type_info", ptr %6, i32 0, i32 1
  %8 = load ptr, ptr %7, align 8, !tbaa !146
  %9 = load ptr, ptr %5, align 8, !tbaa !144
  %10 = getelementptr inbounds nuw %"class.std::type_info", ptr %9, i32 0, i32 1
  %11 = load ptr, ptr %10, align 8, !tbaa !146
  %12 = icmp eq ptr %8, %11
  br i1 %12, label %13, label %14

13:                                               ; preds = %2
  store i1 true, ptr %3, align 1
  br label %30

14:                                               ; preds = %2
  %15 = getelementptr inbounds nuw %"class.std::type_info", ptr %6, i32 0, i32 1
  %16 = load ptr, ptr %15, align 8, !tbaa !146
  %17 = getelementptr inbounds i8, ptr %16, i64 0
  %18 = load i8, ptr %17, align 1, !tbaa !74
  %19 = sext i8 %18 to i32
  %20 = icmp ne i32 %19, 42
  br i1 %20, label %21, label %28

21:                                               ; preds = %14
  %22 = getelementptr inbounds nuw %"class.std::type_info", ptr %6, i32 0, i32 1
  %23 = load ptr, ptr %22, align 8, !tbaa !146
  %24 = load ptr, ptr %5, align 8, !tbaa !144
  %25 = call noundef ptr @_ZNKSt9type_info4nameEv(ptr noundef nonnull align 8 dereferenceable(16) %24) #12
  %26 = call i32 @strcmp(ptr noundef %23, ptr noundef %25) #12
  %27 = icmp eq i32 %26, 0
  br label %28

28:                                               ; preds = %21, %14
  %29 = phi i1 [ false, %14 ], [ %27, %21 ]
  store i1 %29, ptr %3, align 1
  br label %30

30:                                               ; preds = %28, %13
  %31 = load i1, ptr %3, align 1
  ret i1 %31
}

; Function Attrs: mustprogress uwtable
define noundef i32 @_ZNK6icu_7716SimpleDateFormat22matchAlphaMonthStringsERKNS_13UnicodeStringEiPS2_S4_iRNS_8CalendarE(ptr noundef nonnull align 8 dereferenceable(528) %0, ptr noundef nonnull align 8 dereferenceable(64) %1, i32 noundef %2, ptr noundef %3, ptr noundef %4, i32 noundef %5, ptr noundef nonnull align 8 dereferenceable(192) %6) #1 align 2 {
  %8 = alloca i32, align 4
  %9 = alloca ptr, align 8
  %10 = alloca ptr, align 8
  %11 = alloca i32, align 4
  %12 = alloca ptr, align 8
  %13 = alloca ptr, align 8
  %14 = alloca i32, align 4
  %15 = alloca ptr, align 8
  %16 = alloca i32, align 4
  %17 = alloca i32, align 4
  %18 = alloca i32, align 4
  %19 = alloca i32, align 4
  %20 = alloca i32, align 4
  %21 = alloca i32, align 4
  store ptr %0, ptr %9, align 8, !tbaa !23
  store ptr %1, ptr %10, align 8, !tbaa !72
  store i32 %2, ptr %11, align 4, !tbaa !14
  store ptr %3, ptr %12, align 8, !tbaa !72
  store ptr %4, ptr %13, align 8, !tbaa !72
  store i32 %5, ptr %14, align 4, !tbaa !14
  store ptr %6, ptr %15, align 8, !tbaa !150
  call void @llvm.lifetime.start.p0(i64 4, ptr %16) #12
  call void @llvm.lifetime.start.p0(i64 4, ptr %17) #12
  store i32 0, ptr %17, align 4, !tbaa !14
  call void @llvm.lifetime.start.p0(i64 4, ptr %18) #12
  store i32 -1, ptr %18, align 4, !tbaa !14
  store i32 0, ptr %16, align 4, !tbaa !14
  br label %22

22:                                               ; preds = %40, %7
  %23 = load i32, ptr %16, align 4, !tbaa !14
  %24 = load i32, ptr %14, align 4, !tbaa !14
  %25 = icmp slt i32 %23, %24
  br i1 %25, label %26, label %43

26:                                               ; preds = %22
  call void @llvm.lifetime.start.p0(i64 4, ptr %19) #12
  store i32 0, ptr %19, align 4, !tbaa !14
  %27 = load ptr, ptr %10, align 8, !tbaa !72
  %28 = load i32, ptr %11, align 4, !tbaa !14
  %29 = load ptr, ptr %12, align 8, !tbaa !72
  %30 = load i32, ptr %16, align 4, !tbaa !14
  %31 = sext i32 %30 to i64
  %32 = getelementptr inbounds %"class.icu_77::UnicodeString", ptr %29, i64 %31
  %33 = call noundef i32 @_ZN6icu_77L26matchStringWithOptionalDotERKNS_13UnicodeStringEiS2_(ptr noundef nonnull align 8 dereferenceable(64) %27, i32 noundef %28, ptr noundef nonnull align 8 dereferenceable(64) %32)
  store i32 %33, ptr %19, align 4, !tbaa !14
  %34 = load i32, ptr %17, align 4, !tbaa !14
  %35 = icmp sgt i32 %33, %34
  br i1 %35, label %36, label %39

36:                                               ; preds = %26
  %37 = load i32, ptr %16, align 4, !tbaa !14
  store i32 %37, ptr %18, align 4, !tbaa !14
  %38 = load i32, ptr %19, align 4, !tbaa !14
  store i32 %38, ptr %17, align 4, !tbaa !14
  br label %39

39:                                               ; preds = %36, %26
  call void @llvm.lifetime.end.p0(i64 4, ptr %19) #12
  br label %40

40:                                               ; preds = %39
  %41 = load i32, ptr %16, align 4, !tbaa !14
  %42 = add nsw i32 %41, 1
  store i32 %42, ptr %16, align 4, !tbaa !14
  br label %22, !llvm.loop !319

43:                                               ; preds = %22
  store i32 0, ptr %16, align 4, !tbaa !14
  br label %44

44:                                               ; preds = %62, %43
  %45 = load i32, ptr %16, align 4, !tbaa !14
  %46 = load i32, ptr %14, align 4, !tbaa !14
  %47 = icmp slt i32 %45, %46
  br i1 %47, label %48, label %65

48:                                               ; preds = %44
  call void @llvm.lifetime.start.p0(i64 4, ptr %20) #12
  store i32 0, ptr %20, align 4, !tbaa !14
  %49 = load ptr, ptr %10, align 8, !tbaa !72
  %50 = load i32, ptr %11, align 4, !tbaa !14
  %51 = load ptr, ptr %13, align 8, !tbaa !72
  %52 = load i32, ptr %16, align 4, !tbaa !14
  %53 = sext i32 %52 to i64
  %54 = getelementptr inbounds %"class.icu_77::UnicodeString", ptr %51, i64 %53
  %55 = call noundef i32 @_ZN6icu_77L26matchStringWithOptionalDotERKNS_13UnicodeStringEiS2_(ptr noundef nonnull align 8 dereferenceable(64) %49, i32 noundef %50, ptr noundef nonnull align 8 dereferenceable(64) %54)
  store i32 %55, ptr %20, align 4, !tbaa !14
  %56 = load i32, ptr %17, align 4, !tbaa !14
  %57 = icmp sgt i32 %55, %56
  br i1 %57, label %58, label %61

58:                                               ; preds = %48
  %59 = load i32, ptr %16, align 4, !tbaa !14
  store i32 %59, ptr %18, align 4, !tbaa !14
  %60 = load i32, ptr %20, align 4, !tbaa !14
  store i32 %60, ptr %17, align 4, !tbaa !14
  br label %61

61:                                               ; preds = %58, %48
  call void @llvm.lifetime.end.p0(i64 4, ptr %20) #12
  br label %62

62:                                               ; preds = %61
  %63 = load i32, ptr %16, align 4, !tbaa !14
  %64 = add nsw i32 %63, 1
  store i32 %64, ptr %16, align 4, !tbaa !14
  br label %44, !llvm.loop !320

65:                                               ; preds = %44
  %66 = load i32, ptr %18, align 4, !tbaa !14
  %67 = icmp sge i32 %66, 0
  br i1 %67, label %68, label %86

68:                                               ; preds = %65
  %69 = load ptr, ptr %15, align 8, !tbaa !150
  %70 = load ptr, ptr %69, align 8, !tbaa !63
  %71 = getelementptr inbounds ptr, ptr %70, i64 -1
  %72 = load ptr, ptr %71, align 8
  %73 = call noundef zeroext i1 @_ZNKSt9type_infoeqERKS_(ptr noundef nonnull align 8 dereferenceable(16) %72, ptr noundef nonnull align 8 dereferenceable(16) @_ZTIN6icu_7714HebrewCalendarE) #12
  br i1 %73, label %74, label %79

74:                                               ; preds = %68
  %75 = load i32, ptr %18, align 4, !tbaa !14
  %76 = icmp eq i32 %75, 13
  br i1 %76, label %77, label %79

77:                                               ; preds = %74
  %78 = load ptr, ptr %15, align 8, !tbaa !150
  call void @_ZN6icu_778Calendar3setE19UCalendarDateFieldsi(ptr noundef nonnull align 8 dereferenceable(192) %78, i32 noundef 2, i32 noundef 6)
  br label %82

79:                                               ; preds = %74, %68
  %80 = load ptr, ptr %15, align 8, !tbaa !150
  %81 = load i32, ptr %18, align 4, !tbaa !14
  call void @_ZN6icu_778Calendar3setE19UCalendarDateFieldsi(ptr noundef nonnull align 8 dereferenceable(192) %80, i32 noundef 2, i32 noundef %81)
  br label %82

82:                                               ; preds = %79, %77
  %83 = load i32, ptr %11, align 4, !tbaa !14
  %84 = load i32, ptr %17, align 4, !tbaa !14
  %85 = add nsw i32 %83, %84
  store i32 %85, ptr %8, align 4
  store i32 1, ptr %21, align 4
  br label %89

86:                                               ; preds = %65
  %87 = load i32, ptr %11, align 4, !tbaa !14
  %88 = sub nsw i32 0, %87
  store i32 %88, ptr %8, align 4
  store i32 1, ptr %21, align 4
  br label %89

89:                                               ; preds = %86, %82
  call void @llvm.lifetime.end.p0(i64 4, ptr %18) #12
  call void @llvm.lifetime.end.p0(i64 4, ptr %17) #12
  call void @llvm.lifetime.end.p0(i64 4, ptr %16) #12
  %90 = load i32, ptr %8, align 4
  ret i32 %90
}