; Function Attrs: mustprogress uwtable
define noundef i32 @_ZNK6icu_7716SimpleDateFormat22matchAlphaMonthStringsERKNS_13UnicodeStringEiPS2_S4_iRNS_8CalendarE(ptr nonnull readnone align 8 captures(none) %0, ptr noundef nonnull align 8 dereferenceable(64) %1, i32 noundef %2, ptr noundef %3, ptr noundef %4, i32 noundef %5, ptr noundef nonnull align 8 dereferenceable(192) %6) local_unnamed_addr #1 align 2 {
  %8 = icmp sgt i32 %5, 0
  br i1 %8, label %.lr.ph.preheader, label %._crit_edge.thread

.lr.ph.preheader:                                 ; preds = %7
  %wide.trip.count = zext nneg i32 %5 to i64
  br label %.lr.ph

.lr.ph52.preheader:                               ; preds = %.lr.ph
  %wide.trip.count59 = zext nneg i32 %5 to i64
  br label %.lr.ph52

.lr.ph:                                           ; preds = %.lr.ph.preheader, %.lr.ph
  %indvars.iv = phi i64 [ 0, %.lr.ph.preheader ], [ %indvars.iv.next, %.lr.ph ]
  %.047 = phi i32 [ -1, %.lr.ph.preheader ], [ %spec.select40, %.lr.ph ]
  %.03046 = phi i32 [ 0, %.lr.ph.preheader ], [ %spec.select, %.lr.ph ]
  %9 = getelementptr inbounds nuw %"class.icu_77::UnicodeString", ptr %3, i64 %indvars.iv
  %10 = tail call fastcc noundef i32 @_ZN6icu_77L26matchStringWithOptionalDotERKNS_13UnicodeStringEiS2_(ptr noundef nonnull align 8 dereferenceable(64) %1, i32 noundef %2, ptr noundef nonnull align 8 dereferenceable(64) %9)
  %11 = icmp sgt i32 %10, %.03046
  %spec.select = tail call i32 @llvm.smax.i32(i32 %10, i32 %.03046)
  %12 = trunc nuw nsw i64 %indvars.iv to i32
  %spec.select40 = select i1 %11, i32 %12, i32 %.047
  %indvars.iv.next = add nuw nsw i64 %indvars.iv, 1
  %exitcond.not = icmp eq i64 %indvars.iv.next, %wide.trip.count
  br i1 %exitcond.not, label %.lr.ph52.preheader, label %.lr.ph, !llvm.loop !211

.lr.ph52:                                         ; preds = %.lr.ph52.preheader, %.lr.ph52
  %indvars.iv56 = phi i64 [ 0, %.lr.ph52.preheader ], [ %indvars.iv.next57, %.lr.ph52 ]
  %.251 = phi i32 [ %spec.select40, %.lr.ph52.preheader ], [ %spec.select42, %.lr.ph52 ]
  %.23250 = phi i32 [ %spec.select, %.lr.ph52.preheader ], [ %spec.select41, %.lr.ph52 ]
  %13 = getelementptr inbounds nuw %"class.icu_77::UnicodeString", ptr %4, i64 %indvars.iv56
  %14 = tail call fastcc noundef i32 @_ZN6icu_77L26matchStringWithOptionalDotERKNS_13UnicodeStringEiS2_(ptr noundef nonnull align 8 dereferenceable(64) %1, i32 noundef %2, ptr noundef nonnull align 8 dereferenceable(64) %13)
  %15 = icmp sgt i32 %14, %.23250
  %spec.select41 = tail call i32 @llvm.smax.i32(i32 %14, i32 %.23250)
  %16 = trunc nuw nsw i64 %indvars.iv56 to i32
  %spec.select42 = select i1 %15, i32 %16, i32 %.251
  %indvars.iv.next57 = add nuw nsw i64 %indvars.iv56, 1
  %exitcond60.not = icmp eq i64 %indvars.iv.next57, %wide.trip.count59
  br i1 %exitcond60.not, label %._crit_edge, label %.lr.ph52, !llvm.loop !212

._crit_edge:                                      ; preds = %.lr.ph52
  %17 = icmp sgt i32 %spec.select42, -1
  br i1 %17, label %18, label %._crit_edge.thread

18:                                               ; preds = %._crit_edge
  %19 = load ptr, ptr %6, align 8, !tbaa !44
  %20 = getelementptr inbounds i8, ptr %19, i64 -8
  %21 = load ptr, ptr %20, align 8
  %22 = getelementptr inbounds nuw i8, ptr %21, i64 8
  %23 = load ptr, ptr %22, align 8, !tbaa !72
  %24 = load ptr, ptr getelementptr inbounds nuw (i8, ptr @_ZTIN6icu_7714HebrewCalendarE, i64 8), align 8, !tbaa !72
  %25 = icmp eq ptr %23, %24
  br i1 %25, label %_ZNKSt9type_infoeqERKS_.exit, label %26

26:                                               ; preds = %18
  %27 = load i8, ptr %23, align 1, !tbaa !51
  %.not.i = icmp eq i8 %27, 42
  br i1 %.not.i, label %_ZNKSt9type_infoeqERKS_.exit.thread, label %28

28:                                               ; preds = %26
  %29 = load i8, ptr %24, align 1, !tbaa !51
  %30 = icmp eq i8 %29, 42
  %.idx.i.i = zext i1 %30 to i64
  %31 = getelementptr inbounds nuw i8, ptr %24, i64 %.idx.i.i
  %32 = tail call i32 @strcmp(ptr noundef nonnull dereferenceable(1) %23, ptr noundef nonnull dereferenceable(1) %31) #23
  %33 = icmp eq i32 %32, 0
  br label %_ZNKSt9type_infoeqERKS_.exit

_ZNKSt9type_infoeqERKS_.exit:                     ; preds = %18, %28
  %.0.i = phi i1 [ true, %18 ], [ %33, %28 ]
  %34 = icmp eq i32 %spec.select42, 13
  %or.cond = and i1 %.0.i, %34
  br i1 %or.cond, label %35, label %_ZNKSt9type_infoeqERKS_.exit.thread

_ZNKSt9type_infoeqERKS_.exit.thread:              ; preds = %26, %_ZNKSt9type_infoeqERKS_.exit
  br label %35

35:                                               ; preds = %_ZNKSt9type_infoeqERKS_.exit, %_ZNKSt9type_infoeqERKS_.exit.thread
  %spec.select42.lcssa.sink = phi i32 [ %spec.select42, %_ZNKSt9type_infoeqERKS_.exit.thread ], [ 6, %_ZNKSt9type_infoeqERKS_.exit ]
  tail call void @_ZN6icu_778Calendar3setE19UCalendarDateFieldsi(ptr noundef nonnull align 8 dereferenceable(192) %6, i32 noundef 2, i32 noundef %spec.select42.lcssa.sink)
  %36 = add nsw i32 %spec.select41, %2
  br label %38

._crit_edge.thread:                               ; preds = %7, %._crit_edge
  %37 = sub nsw i32 0, %2
  br label %38

38:                                               ; preds = %._crit_edge.thread, %35
  %.036 = phi i32 [ %36, %35 ], [ %37, %._crit_edge.thread ]
  ret i32 %.036
}